target datalayout = "e-m:e-p270:32:32-p271:32:32-p272:64:64-i64:64-i128:128-f80:128-n8:16:32:64-S128"
target triple = "x86_64-pc-linux-gnu"

%struct.object_id = type { [32 x i8], i32 }
%struct.repository = type { ptr, ptr, ptr, ptr, ptr, %struct.strmap, %struct.strmap, %struct.repo_path_cache, ptr, ptr, ptr, ptr, %struct.repo_settings, ptr, ptr, ptr, ptr, ptr, ptr, i32, i32, i32, ptr, ptr, i32, i32, i8 }
%struct.strmap = type { %struct.hashmap, ptr, i8 }
%struct.hashmap = type { ptr, ptr, ptr, i32, i32, i32, i32, i8 }
%struct.repo_path_cache = type { ptr, ptr, ptr, ptr, ptr, ptr, ptr }
%struct.repo_settings = type { i32, i32, i32, i32, i32, i32, i32, i32, i32, i32, i32, i32, ptr, i32, i32, i32, i32, i32, i32, i32, i64, i64, i64 }
%struct.index_state = type { ptr, i32, i32, i32, i32, ptr, ptr, ptr, %struct.cache_time, i8, i32, %struct.hashmap, %struct.hashmap, %struct.object_id, ptr, ptr, ptr, ptr, ptr, ptr, ptr }
%struct.cache_time = type { i32, i32 }
%struct.cache_entry = type { %struct.hashmap_entry, %struct.stat_data, i32, i32, i32, i32, i32, %struct.object_id, [0 x i8] }
%struct.hashmap_entry = type { ptr, i32 }
%struct.stat_data = type { %struct.cache_time, %struct.cache_time, i32, i32, i32, i32, i32 }

@the_repository = external global ptr, align 8
@.str.31 = private unnamed_addr constant [27 x i8] c"size_t overflow: %lu + %lu\00", align 1

; Function Attrs: inlinehint nounwind uwtable
define internal i64 @st_add(i64 noundef %0, i64 noundef %1) #4 {
  %3 = alloca i64, align 8
  %4 = alloca i64, align 8
  store i64 %0, ptr %3, align 8, !tbaa !68
  store i64 %1, ptr %4, align 8, !tbaa !68
  %5 = load i64, ptr %4, align 8, !tbaa !68
  %6 = load i64, ptr %3, align 8, !tbaa !68
  %7 = sub i64 -1, %6
  %8 = icmp ugt i64 %5, %7
  br i1 %8, label %9, label %12

9:                                                ; preds = %2
  %10 = load i64, ptr %3, align 8, !tbaa !68
  %11 = load i64, ptr %4, align 8, !tbaa !68
  call void (ptr, ...) @die(ptr noundef @.str.31, i64 noundef %10, i64 noundef %11) #10
  unreachable

12:                                               ; preds = %2
  %13 = load i64, ptr %3, align 8, !tbaa !68
  %14 = load i64, ptr %4, align 8, !tbaa !68
  %15 = add i64 %13, %14
  ret i64 %15
}

; Function Attrs: nounwind uwtable
define internal ptr @add_slash(ptr noundef %0) #0 {
  %2 = alloca ptr, align 8
  %3 = alloca ptr, align 8
  %4 = alloca i64, align 8
  %5 = alloca ptr, align 8
  %6 = alloca i32, align 4
  store ptr %0, ptr %3, align 8, !tbaa !11
  call void @llvm.lifetime.start.p0(i64 8, ptr %4) #9
  %7 = load ptr, ptr %3, align 8, !tbaa !11
  %8 = call i64 @strlen(ptr noundef %7) #11
  store i64 %8, ptr %4, align 8, !tbaa !68
  %9 = load i64, ptr %4, align 8, !tbaa !68
  %10 = icmp ne i64 %9, 0
  br i1 %10, label %11, label %34

11:                                               ; preds = %1
  %12 = load ptr, ptr %3, align 8, !tbaa !11
  %13 = load i64, ptr %4, align 8, !tbaa !68
  %14 = sub i64 %13, 1
  %15 = getelementptr inbounds nuw i8, ptr %12, i64 %14
  %16 = load i8, ptr %15, align 1, !tbaa !32
  %17 = sext i8 %16 to i32
  %18 = icmp ne i32 %17, 47
  br i1 %18, label %19, label %34

19:                                               ; preds = %11
  call void @llvm.lifetime.start.p0(i64 8, ptr %5) #9
  %20 = load i64, ptr %4, align 8, !tbaa !68
  %21 = call i64 @st_add(i64 noundef %20, i64 noundef 2)
  %22 = call ptr @xmalloc(i64 noundef %21)
  store ptr %22, ptr %5, align 8, !tbaa !11
  %23 = load ptr, ptr %5, align 8, !tbaa !11
  %24 = load ptr, ptr %3, align 8, !tbaa !11
  %25 = load i64, ptr %4, align 8, !tbaa !68
  call void @llvm.memcpy.p0.p0.i64(ptr align 1 %23, ptr align 1 %24, i64 %25, i1 false)
  %26 = load ptr, ptr %5, align 8, !tbaa !11
  %27 = load i64, ptr %4, align 8, !tbaa !68
  %28 = add i64 %27, 1
  store i64 %28, ptr %4, align 8, !tbaa !68
  %29 = getelementptr inbounds nuw i8, ptr %26, i64 %27
  store i8 47, ptr %29, align 1, !tbaa !32
  %30 = load ptr, ptr %5, align 8, !tbaa !11
  %31 = load i64, ptr %4, align 8, !tbaa !68
  %32 = getelementptr inbounds nuw i8, ptr %30, i64 %31
  store i8 0, ptr %32, align 1, !tbaa !32
  %33 = load ptr, ptr %5, align 8, !tbaa !11
  store ptr %33, ptr %2, align 8
  store i32 1, ptr %6, align 4
  call void @llvm.lifetime.end.p0(i64 8, ptr %5) #9
  br label %37

34:                                               ; preds = %11, %1
  %35 = load ptr, ptr %3, align 8, !tbaa !11
  %36 = call ptr @xstrdup(ptr noundef %35)
  store ptr %36, ptr %2, align 8
  store i32 1, ptr %6, align 4
  br label %37

37:                                               ; preds = %34, %19
  call void @llvm.lifetime.end.p0(i64 8, ptr %4) #9
  %38 = load ptr, ptr %2, align 8
  ret ptr %38
}

; Function Attrs: nounwind uwtable
define internal i32 @empty_dir_has_sparse_contents(ptr noundef %0) #0 {
  %2 = alloca ptr, align 8
  %3 = alloca i32, align 4
  %4 = alloca ptr, align 8
  %5 = alloca i32, align 4
  %6 = alloca i32, align 4
  %7 = alloca ptr, align 8
  store ptr %0, ptr %2, align 8, !tbaa !11
  call void @llvm.lifetime.start.p0(i64 4, ptr %3) #9
  store i32 0, ptr %3, align 4, !tbaa !4
  call void @llvm.lifetime.start.p0(i64 8, ptr %4) #9
  %8 = load ptr, ptr %2, align 8, !tbaa !11
  %9 = call ptr @add_slash(ptr noundef %8)
  store ptr %9, ptr %4, align 8, !tbaa !11
  call void @llvm.lifetime.start.p0(i64 4, ptr %5) #9
  %10 = load ptr, ptr %4, align 8, !tbaa !11
  %11 = call i64 @strlen(ptr noundef %10) #11
  %12 = trunc i64 %11 to i32
  store i32 %12, ptr %5, align 4, !tbaa !4
  call void @llvm.lifetime.start.p0(i64 4, ptr %6) #9
  %13 = load ptr, ptr @the_repository, align 8, !tbaa !13
  %14 = getelementptr inbounds nuw %struct.repository, ptr %13, i32 0, i32 15
  %15 = load ptr, ptr %14, align 8, !tbaa !36
  %16 = load ptr, ptr %4, align 8, !tbaa !11
  %17 = load i32, ptr %5, align 4, !tbaa !4
  %18 = call i32 @index_name_pos(ptr noundef %15, ptr noundef %16, i32 noundef %17)
  store i32 %18, ptr %6, align 4, !tbaa !4
  call void @llvm.lifetime.start.p0(i64 8, ptr %7) #9
  %19 = load i32, ptr %6, align 4, !tbaa !4
  %20 = icmp slt i32 %19, 0
  br i1 %20, label %21, label %60

21:                                               ; preds = %1
  %22 = load i32, ptr %6, align 4, !tbaa !4
  %23 = sub nsw i32 0, %22
  %24 = sub nsw i32 %23, 1
  store i32 %24, ptr %6, align 4, !tbaa !4
  %25 = load i32, ptr %6, align 4, !tbaa !4
  %26 = load ptr, ptr @the_repository, align 8, !tbaa !13
  %27 = getelementptr inbounds nuw %struct.repository, ptr %26, i32 0, i32 15
  %28 = load ptr, ptr %27, align 8, !tbaa !36
  %29 = getelementptr inbounds nuw %struct.index_state, ptr %28, i32 0, i32 2
  %30 = load i32, ptr %29, align 4, !tbaa !85
  %31 = icmp uge i32 %25, %30
  br i1 %31, label %32, label %33

32:                                               ; preds = %21
  br label %61

33:                                               ; preds = %21
  %34 = load ptr, ptr @the_repository, align 8, !tbaa !13
  %35 = getelementptr inbounds nuw %struct.repository, ptr %34, i32 0, i32 15
  %36 = load ptr, ptr %35, align 8, !tbaa !36
  %37 = getelementptr inbounds nuw %struct.index_state, ptr %36, i32 0, i32 0
  %38 = load ptr, ptr %37, align 8, !tbaa !54
  %39 = load i32, ptr %6, align 4, !tbaa !4
  %40 = sext i32 %39 to i64
  %41 = getelementptr inbounds ptr, ptr %38, i64 %40
  %42 = load ptr, ptr %41, align 8, !tbaa !66
  store ptr %42, ptr %7, align 8, !tbaa !66
  %43 = load ptr, ptr %4, align 8, !tbaa !11
  %44 = load ptr, ptr %7, align 8, !tbaa !66
  %45 = getelementptr inbounds nuw %struct.cache_entry, ptr %44, i32 0, i32 8
  %46 = getelementptr inbounds [0 x i8], ptr %45, i64 0, i64 0
  %47 = load i32, ptr %5, align 4, !tbaa !4
  %48 = sext i32 %47 to i64
  %49 = call i32 @strncmp(ptr noundef %43, ptr noundef %46, i64 noundef %48) #11
  %50 = icmp ne i32 %49, 0
  br i1 %50, label %51, label %52

51:                                               ; preds = %33
  br label %61

52:                                               ; preds = %33
  %53 = load ptr, ptr %7, align 8, !tbaa !66
  %54 = getelementptr inbounds nuw %struct.cache_entry, ptr %53, i32 0, i32 3
  %55 = load i32, ptr %54, align 8, !tbaa !4
  %56 = and i32 %55, 1073741824
  %57 = icmp ne i32 %56, 0
  br i1 %57, label %58, label %59

58:                                               ; preds = %52
  store i32 1, ptr %3, align 4, !tbaa !4
  br label %59

59:                                               ; preds = %58, %52
  br label %60

60:                                               ; preds = %59, %1
  br label %61

61:                                               ; preds = %60, %51, %32
  %62 = load ptr, ptr %4, align 8, !tbaa !11
  call void @free(ptr noundef %62) #9
  %63 = load i32, ptr %3, align 4, !tbaa !4
  call void @llvm.lifetime.end.p0(i64 8, ptr %7) #9
  call void @llvm.lifetime.end.p0(i64 4, ptr %6) #9
  call void @llvm.lifetime.end.p0(i64 4, ptr %5) #9
  call void @llvm.lifetime.end.p0(i64 8, ptr %4) #9
  call void @llvm.lifetime.end.p0(i64 4, ptr %3) #9
  ret i32 %63
}