; Function Attrs: nounwind uwtable
define internal fastcc range(i32 0, 2) i32 @empty_dir_has_sparse_contents(ptr noundef %0) unnamed_addr #0 {
  %2 = tail call i64 @strlen(ptr noundef nonnull dereferenceable(1) %0) #14
  %.not.i = icmp eq i64 %2, 0
  br i1 %.not.i, label %14, label %3

3:                                                ; preds = %1
  %4 = getelementptr i8, ptr %0, i64 %2
  %5 = getelementptr i8, ptr %4, i64 -1
  %6 = load i8, ptr %5, align 1, !tbaa !27
  %.not15.i = icmp eq i8 %6, 47
  br i1 %.not15.i, label %14, label %7

7:                                                ; preds = %3
  %8 = icmp ugt i64 %2, -3
  br i1 %8, label %9, label %st_add.exit.i

9:                                                ; preds = %7
  tail call void (ptr, ...) @die(ptr noundef nonnull @.str.31, i64 noundef range(i64 1, 0) %2, i64 noundef 2) #13
  unreachable

st_add.exit.i:                                    ; preds = %7
  %10 = add nuw i64 %2, 2
  %11 = tail call ptr @xmalloc(i64 noundef %10) #12
  tail call void @llvm.memcpy.p0.p0.i64(ptr align 1 %11, ptr nonnull align 1 %0, i64 %2, i1 false)
  %12 = getelementptr inbounds nuw i8, ptr %11, i64 %2
  store i8 47, ptr %12, align 1, !tbaa !27
  %13 = getelementptr i8, ptr %12, i64 1
  store i8 0, ptr %13, align 1, !tbaa !27
  br label %add_slash.exit

14:                                               ; preds = %3, %1
  %15 = tail call ptr @xstrdup(ptr noundef nonnull %0) #12
  br label %add_slash.exit

add_slash.exit:                                   ; preds = %st_add.exit.i, %14
  %.0.i = phi ptr [ %11, %st_add.exit.i ], [ %15, %14 ]
  %16 = tail call i64 @strlen(ptr noundef nonnull dereferenceable(1) %.0.i) #14
  %17 = trunc i64 %16 to i32
  %18 = load ptr, ptr @the_repository, align 8, !tbaa !21
  %19 = getelementptr inbounds nuw i8, ptr %18, i64 384
  %20 = load ptr, ptr %19, align 8, !tbaa !31
  %21 = tail call i32 @index_name_pos(ptr noundef %20, ptr noundef nonnull %.0.i, i32 noundef %17) #12
  %22 = icmp slt i32 %21, 0
  br i1 %22, label %23, label %42

23:                                               ; preds = %add_slash.exit
  %24 = xor i32 %21, -1
  %25 = load ptr, ptr @the_repository, align 8, !tbaa !21
  %26 = getelementptr inbounds nuw i8, ptr %25, i64 384
  %27 = load ptr, ptr %26, align 8, !tbaa !31
  %28 = getelementptr inbounds nuw i8, ptr %27, i64 12
  %29 = load i32, ptr %28, align 4, !tbaa !81
  %.not = icmp ugt i32 %29, %24
  br i1 %.not, label %30, label %42

30:                                               ; preds = %23
  %31 = load ptr, ptr %27, align 8, !tbaa !49
  %32 = zext nneg i32 %24 to i64
  %33 = getelementptr inbounds nuw ptr, ptr %31, i64 %32
  %34 = load ptr, ptr %33, align 8, !tbaa !61
  %35 = getelementptr inbounds nuw i8, ptr %34, i64 108
  %sext = shl i64 %16, 32
  %36 = ashr exact i64 %sext, 32
  %37 = tail call i32 @strncmp(ptr noundef nonnull %.0.i, ptr noundef nonnull %35, i64 noundef %36) #14
  %.not15 = icmp eq i32 %37, 0
  br i1 %.not15, label %38, label %42

38:                                               ; preds = %30
  %39 = getelementptr inbounds nuw i8, ptr %34, i64 56
  %40 = load i32, ptr %39, align 8, !tbaa !4
  %41 = lshr i32 %40, 30
  %.lobit = and i32 %41, 1
  br label %42

42:                                               ; preds = %38, %add_slash.exit, %30, %23
  %.0 = phi i32 [ 0, %23 ], [ 0, %30 ], [ 0, %add_slash.exit ], [ %.lobit, %38 ]
  tail call void @free(ptr noundef nonnull %.0.i) #12
  ret i32 %.0
}